ccopy_reg
_reconstructor
p1
(csklearn.svm.classes
LinearSVC
p2
c__builtin__
object
p3
NtRp4
(dp5
S'loss'
p6
S'squared_hinge'
p7
sS'C'
F1
sS'max_iter'
p8
I1000
sS'verbose'
p9
I0
sS'fit_intercept'
p10
I01
sS'classes_'
p11
cnumpy.core.multiarray
_reconstruct
p12
(cnumpy
ndarray
p13
(I0
tS'b'
tRp14
(I1
(I2
tcnumpy
dtype
p15
(S'u1'
I0
I1
tRp16
(I3
S'|'
NNNI-1
I-1
I0
tbI00
S'\x00\x01'
tbsS'class_weight'
p17
NsS'n_iter_'
p18
cnumpy.core.multiarray
scalar
p19
(g15
(S'i4'
I0
I1
tRp20
(I3
S'<'
NNNI-1
I-1
I0
tbS'\xae\x00\x00\x00'
tRp21
sS'penalty'
p22
S'l2'
p23
sS'multi_class'
p24
S'ovr'
p25
sS'random_state'
p26
NsS'_sklearn_version'
p27
S'0.18.1'
p28
sS'dual'
p29
I01
sS'tol'
p30
F0.0001
sS'coef_'
p31
g12
(g13
(I0
tS'b'
tRp32
(I1
(I1
I9
tg15
(S'f8'
I0
I1
tRp33
(I3
S'<'
NNNI-1
I-1
I0
tbI01
S'\t\xf0\xb6S\x1b\xdc3@\xa5\xe1u\x84!\xc6\x1d\xc0R\xde&\xc1\xb5M\r\xc0/\x82\x9a\x0c\x91<\x14\xc0\xc5\xda\xed\xad6\xe3\x0b\xc0\x04\xf4e\xb9\xf3\x05\xeb\xbf\xd9\xc4\x89\xaeE\xb6\x13\xc0\x8aN\xea|\xb4\xda\xfd?\t{.e\xeb\x14\x15@'
tbsS'intercept_'
p34
g12
(g13
(I0
tS'b'
tRp35
(I1
(I1
tg33
I00
S'\xd2\xcc^\xab\x1f\xbf\xea\xbf'
tbsS'intercept_scaling'
p36
I1
sb.